; Function Attrs: nounwind uwtable
define dso_local void @add_new_column_to_pathtarget(ptr noundef captures(none) %0, ptr noundef %1) local_unnamed_addr #0 {
  %3 = getelementptr inbounds nuw i8, ptr %0, i64 8
  %4 = load ptr, ptr %3, align 8
  %5 = tail call zeroext i1 @list_member(ptr noundef %4, ptr noundef %1) #10
  br i1 %5, label %add_column_to_pathtarget.exit, label %6

6:                                                ; preds = %2
  %7 = load ptr, ptr %3, align 8
  %8 = tail call ptr @lappend(ptr noundef %7, ptr noundef %1) #10
  store ptr %8, ptr %3, align 8
  %9 = getelementptr inbounds nuw i8, ptr %0, i64 16
  %10 = load ptr, ptr %9, align 8
  %.not.i = icmp eq ptr %10, null
  br i1 %.not.i, label %22, label %11

11:                                               ; preds = %6
  %.not.i.i = icmp eq ptr %8, null
  br i1 %.not.i.i, label %list_length.exit.i, label %12

12:                                               ; preds = %11
  %13 = getelementptr inbounds nuw i8, ptr %8, i64 4
  %14 = load i32, ptr %13, align 4
  br label %list_length.exit.i

list_length.exit.i:                               ; preds = %12, %11
  %15 = phi i32 [ %14, %12 ], [ 0, %11 ]
  %16 = sext i32 %15 to i64
  %17 = shl nsw i64 %16, 2
  %18 = tail call ptr @repalloc(ptr noundef nonnull %10, i64 noundef %17) #10
  store ptr %18, ptr %9, align 8
  %19 = add i32 %15, -1
  %20 = sext i32 %19 to i64
  %21 = getelementptr inbounds i32, ptr %18, i64 %20
  store i32 0, ptr %21, align 4
  br label %22

22:                                               ; preds = %6, %list_length.exit.i
  %23 = getelementptr inbounds nuw i8, ptr %0, i64 44
  %24 = load i32, ptr %23, align 4
  %25 = icmp eq i32 %24, 2
  br i1 %25, label %26, label %add_column_to_pathtarget.exit

26:                                               ; preds = %22
  store i32 0, ptr %23, align 4
  br label %add_column_to_pathtarget.exit

add_column_to_pathtarget.exit:                    ; preds = %26, %22, %2
  ret void
}